Certificate:
    Data:
        Version: 1 (0x0)
        Serial Number: 2 (0x2)
        Signature Algorithm: sha256WithRSAEncryption
        Issuer: C=US, ST=CA, L=San Jose, O=A10 Networks, OU=Cloud SaaS Framework, CN=ozgur/emailAddress=ktufekci@a10networks.com
        Validity
            Not Before: Jun  1 20:40:41 2023 GMT
            Not After : May 31 20:40:41 2024 GMT
        Subject: C=US, ST=CA, L=San Jose, O=A10 Networks, OU=Cloud SaaS Framework, CN=ozgurClient/emailAddress=ktufekci@a10networks.com
        Subject Public Key Info:
            Public Key Algorithm: rsaEncryption
                Public-Key: (2048 bit)
                Modulus:
                    00:b3:28:b2:7c:e4:65:1c:a1:33:62:8d:5d:b9:13:
                    ac:80:b4:68:89:d2:6e:b9:53:3b:03:fe:a2:24:f6:
                    ff:eb:17:d1:8e:ea:92:70:fb:f2:c7:20:bd:e4:c9:
                    c7:f7:f0:e6:3a:c5:7a:93:6a:4d:13:30:d8:ca:16:
                    91:bf:58:d0:6c:ab:1d:34:50:24:70:ac:02:9b:00:
                    15:94:8f:4a:2b:fd:50:d1:95:31:1b:b4:bd:d8:90:
                    d9:cb:0b:27:d7:2a:2a:6a:e3:7e:4e:e5:8b:ab:39:
                    29:4a:46:3e:46:7f:eb:d1:1a:08:67:c1:c2:3f:0e:
                    0c:81:bf:67:e1:42:70:42:c1:5f:04:77:6a:1c:69:
                    e9:d2:40:a2:22:cf:85:cd:62:66:87:22:2c:e0:45:
                    d7:9d:ef:70:81:0a:2f:3e:2a:5f:05:f9:d6:e6:4b:
                    bf:f3:44:2d:3b:45:77:1d:5a:34:ad:42:0e:b1:59:
                    0b:88:ee:03:5a:57:e2:26:17:75:0a:dd:c2:ce:1e:
                    e4:19:5b:43:d7:a5:9e:99:1b:98:83:6f:d9:db:b6:
                    31:e8:8e:92:e4:73:9f:6a:f0:43:58:b2:c7:da:d3:
                    71:16:d6:c5:89:22:c0:06:cb:b1:fd:a9:a8:0a:48:
                    d3:3f:ac:3d:a8:55:82:d1:31:0c:4d:49:60:38:06:
                    49:c9
                Exponent: 65537 (0x10001)
    Signature Algorithm: sha256WithRSAEncryption
    Signature Value:
        8f:bc:84:ea:cc:55:d7:5b:93:7e:23:83:f4:e5:7c:03:f6:79:
        40:02:12:b5:73:16:ed:a2:f8:0d:80:df:42:ad:11:bd:df:db:
        6c:f7:65:34:5f:b9:3b:ce:93:be:d8:34:89:1c:9b:9e:e5:16:
        07:2d:ef:39:26:f0:ab:b1:00:e0:41:31:cb:1a:79:a1:2f:a8:
        3d:2d:62:ca:aa:56:b6:c9:f1:ec:25:98:f8:7e:d8:7c:79:0d:
        0f:cb:af:da:19:b1:dc:4f:ab:df:63:86:f9:40:47:fa:e6:52:
        45:e6:b2:9d:91:ee:07:db:d2:7d:5b:bc:61:99:7a:39:fa:2d:
        b8:e0:49:d5:78:70:47:45:a2:40:ca:d1:01:3e:63:72:d7:2f:
        c8:85:6c:52:a8:3a:e8:be:70:81:aa:99:ba:e3:7b:4c:fe:de:
        a6:06:9c:c0:4c:b1:77:fb:fb:c1:41:87:e6:e1:ec:7e:0d:da:
        f7:1e:83:72:44:bc:b6:d4:18:b5:db:0b:1e:ac:3f:78:fd:5b:
        ad:ea:53:31:6d:8b:cc:90:ee:dc:e4:a8:2a:ae:3f:2e:d7:fd:
        85:c9:44:d5:06:3c:95:48:c4:6e:d8:15:4c:fd:68:e6:b9:29:
        ea:ee:ae:05:f6:b7:31:7d:e8:25:38:2d:f5:7f:ce:64:27:e4:
        00:e0:8b:76
-----BEGIN CERTIFICATE-----
MIIDtDCCApwCAQIwDQYJKoZIhvcNAQELBQAwgZwxCzAJBgNVBAYTAlVTMQswCQYD
VQQIDAJDQTERMA8GA1UEBwwIU2FuIEpvc2UxFTATBgNVBAoMDEExMCBOZXR3b3Jr
czEdMBsGA1UECwwUQ2xvdWQgU2FhUyBGcmFtZXdvcmsxDjAMBgNVBAMMBW96Z3Vy
MScwJQYJKoZIhvcNAQkBFhhrdHVmZWtjaUBhMTBuZXR3b3Jrcy5jb20wHhcNMjMw
NjAxMjA0MDQxWhcNMjQwNTMxMjA0MDQxWjCBojELMAkGA1UEBhMCVVMxCzAJBgNV
BAgMAkNBMREwDwYDVQQHDAhTYW4gSm9zZTEVMBMGA1UECgwMQTEwIE5ldHdvcmtz
MR0wGwYDVQQLDBRDbG91ZCBTYWFTIEZyYW1ld29yazEUMBIGA1UEAwwLb3pndXJD
bGllbnQxJzAlBgkqhkiG9w0BCQEWGGt0dWZla2NpQGExMG5ldHdvcmtzLmNvbTCC
ASIwDQYJKoZIhvcNAQEBBQADggEPADCCAQoCggEBALMosnzkZRyhM2KNXbkTrIC0
aInSbrlTOwP+oiT2/+sX0Y7qknD78scgveTJx/fw5jrFepNqTRMw2MoWkb9Y0Gyr
HTRQJHCsApsAFZSPSiv9UNGVMRu0vdiQ2csLJ9cqKmrjfk7li6s5KUpGPkZ/69Ea
CGfBwj8ODIG/Z+FCcELBXwR3ahxp6dJAoiLPhc1iZociLOBF153vcIEKLz4qXwX5
1uZLv/NELTtFdx1aNK1CDrFZC4juA1pX4iYXdQrdws4e5BlbQ9elnpkbmINv2du2
MeiOkuRzn2rwQ1iyx9rTcRbWxYkiwAbLsf2pqApI0z+sPahVgtExDE1JYDgGSckC
AwEAATANBgkqhkiG9w0BAQsFAAOCAQEAj7yE6sxV11uTfiOD9OV8A/Z5QAIStXMW
7aL4DYDfQq0Rvd/bbPdlNF+5O86Tvtg0iRybnuUWBy3vOSbwq7EA4EExyxp5oS+o
PS1iyqpWtsnx7CWY+H7YfHkND8uv2hmx3E+r32OG+UBH+uZSReaynZHuB9vSfVu8
YZl6OfotuOBJ1XhwR0WiQMrRAT5jctcvyIVsUqg66L5wgaqZuuN7TP7epgacwEyx
d/v7wUGH5uHsfg3a9x6DckS8ttQYtdsLHqw/eP1brepTMW2LzJDu3OSoKq4/Ltf9
hclE1QY8lUjEbtgVTP1o5rkp6u6uBfa3MX3oJTgt9X/OZCfkAOCLdg==
-----END CERTIFICATE-----
