Certificate:
    Data:
        Version: 1 (0x0)
        Serial Number: 1 (0x1)
        Signature Algorithm: sha256WithRSAEncryption
        Issuer: C=US, ST=CA, L=San Jose, O=A10 Networks, OU=Cloud SaaS Framework, CN=ozgur/emailAddress=ktufekci@a10networks.com
        Validity
            Not Before: Jun  1 20:37:12 2023 GMT
            Not After : May 31 20:37:12 2024 GMT
        Subject: C=US, ST=CA, L=San Jose, O=A10 Networks, OU=Cloud SaaS Framework, CN=ozgur/emailAddress=ktufekci@a10networks.com
        Subject Public Key Info:
            Public Key Algorithm: rsaEncryption
                Public-Key: (2048 bit)
                Modulus:
                    00:c0:ca:8b:47:e5:35:48:bc:b3:5e:39:c5:d7:e2:
                    c9:11:bc:3c:31:96:da:46:58:12:14:df:d0:45:b0:
                    e3:a4:3e:a5:47:57:21:18:e5:55:74:84:a5:73:a5:
                    6c:2b:27:b9:d0:04:52:1f:36:89:15:51:93:2d:36:
                    37:20:90:9b:d1:a2:3c:13:45:59:02:cf:1c:42:02:
                    80:fe:03:76:4b:cf:55:de:20:8a:5b:af:a0:01:66:
                    dd:16:57:b9:8f:45:25:f6:a8:e9:42:e9:ec:0e:21:
                    79:b7:b7:70:89:fc:5f:51:83:c0:99:1e:b1:00:d5:
                    bb:1c:46:75:23:32:7b:17:49:4b:22:00:98:c4:67:
                    aa:6b:05:8e:13:c8:0e:27:ab:0c:06:e9:90:6e:9e:
                    19:79:3b:90:1a:73:ef:40:a3:42:20:30:53:c9:f3:
                    a4:77:d8:0e:3c:37:bf:df:ae:cc:09:9e:40:a0:77:
                    4e:d0:fe:16:f7:5e:ad:24:d3:f5:b9:e6:ad:7d:81:
                    46:da:39:fc:4a:e3:49:94:44:9e:d2:6d:bc:43:36:
                    48:18:90:14:3b:d1:90:ec:c1:4f:df:42:14:54:55:
                    ed:0e:67:61:46:8d:75:59:eb:87:70:4c:07:c0:a1:
                    90:4e:e0:fe:68:79:5a:af:f7:9f:4e:9a:4b:bc:b9:
                    50:3f
                Exponent: 65537 (0x10001)
    Signature Algorithm: sha256WithRSAEncryption
    Signature Value:
        aa:f6:cf:ce:cc:3a:4d:ee:ff:27:c2:d7:e1:2f:b8:da:18:13:
        da:26:63:9f:f1:50:e1:80:08:7a:2e:49:df:81:e8:7c:fe:7b:
        83:df:8a:cb:7c:ed:63:bc:7a:7e:09:12:f5:3b:5f:98:1d:34:
        10:4e:ae:36:c8:99:30:97:5e:3c:5b:88:7c:cc:13:6b:61:ae:
        e4:1c:de:97:bb:2c:df:ed:9c:6e:c8:d2:e0:67:6a:58:9c:cb:
        8d:f0:55:96:d8:fe:e8:63:cb:7d:69:e3:ad:d7:a2:ac:c0:d6:
        4c:4e:4e:13:16:28:94:fc:d3:e6:47:2d:0f:22:c9:a9:4c:f2:
        b0:81:d7:1f:8c:06:56:45:89:8c:ca:31:af:bc:51:dc:e5:f1:
        0d:ae:9f:57:ef:8b:1d:32:4e:66:1e:fa:46:24:8f:dd:e1:1f:
        8d:65:75:e2:7b:05:a5:0f:7f:2b:03:e6:ae:b2:ea:c1:2b:48:
        aa:64:b6:ed:70:a0:99:91:a5:4c:67:c6:7e:51:09:f2:89:6f:
        11:b9:f1:05:fd:41:c9:79:2f:7f:93:1d:66:ad:8d:4b:54:81:
        a1:58:a6:20:43:16:a4:f8:8b:72:c9:40:00:ce:e2:90:02:9a:
        74:7f:09:64:b9:82:68:af:22:50:11:9f:d8:c3:04:98:41:0e:
        58:b2:11:86
-----BEGIN CERTIFICATE-----
MIIDrjCCApYCAQEwDQYJKoZIhvcNAQELBQAwgZwxCzAJBgNVBAYTAlVTMQswCQYD
VQQIDAJDQTERMA8GA1UEBwwIU2FuIEpvc2UxFTATBgNVBAoMDEExMCBOZXR3b3Jr
czEdMBsGA1UECwwUQ2xvdWQgU2FhUyBGcmFtZXdvcmsxDjAMBgNVBAMMBW96Z3Vy
MScwJQYJKoZIhvcNAQkBFhhrdHVmZWtjaUBhMTBuZXR3b3Jrcy5jb20wHhcNMjMw
NjAxMjAzNzEyWhcNMjQwNTMxMjAzNzEyWjCBnDELMAkGA1UEBhMCVVMxCzAJBgNV
BAgMAkNBMREwDwYDVQQHDAhTYW4gSm9zZTEVMBMGA1UECgwMQTEwIE5ldHdvcmtz
MR0wGwYDVQQLDBRDbG91ZCBTYWFTIEZyYW1ld29yazEOMAwGA1UEAwwFb3pndXIx
JzAlBgkqhkiG9w0BCQEWGGt0dWZla2NpQGExMG5ldHdvcmtzLmNvbTCCASIwDQYJ
KoZIhvcNAQEBBQADggEPADCCAQoCggEBAMDKi0flNUi8s145xdfiyRG8PDGW2kZY
EhTf0EWw46Q+pUdXIRjlVXSEpXOlbCsnudAEUh82iRVRky02NyCQm9GiPBNFWQLP
HEICgP4DdkvPVd4giluvoAFm3RZXuY9FJfao6ULp7A4hebe3cIn8X1GDwJkesQDV
uxxGdSMyexdJSyIAmMRnqmsFjhPIDierDAbpkG6eGXk7kBpz70CjQiAwU8nzpHfY
Djw3v9+uzAmeQKB3TtD+FvderSTT9bnmrX2BRto5/ErjSZREntJtvEM2SBiQFDvR
kOzBT99CFFRV7Q5nYUaNdVnrh3BMB8ChkE7g/mh5Wq/3n06aS7y5UD8CAwEAATAN
BgkqhkiG9w0BAQsFAAOCAQEAqvbPzsw6Te7/J8LX4S+42hgT2iZjn/FQ4YAIei5J
34HofP57g9+Ky3ztY7x6fgkS9TtfmB00EE6uNsiZMJdePFuIfMwTa2Gu5Bzel7ss
3+2cbsjS4GdqWJzLjfBVltj+6GPLfWnjrdeirMDWTE5OExYolPzT5kctDyLJqUzy
sIHXH4wGVkWJjMoxr7xR3OXxDa6fV++LHTJOZh76RiSP3eEfjWV14nsFpQ9/KwPm
rrLqwStIqmS27XCgmZGlTGfGflEJ8olvEbnxBf1ByXkvf5MdZq2NS1SBoVimIEMW
pPiLcslAAM7ikAKadH8JZLmCaK8iUBGf2MMEmEEOWLIRhg==
-----END CERTIFICATE-----
